; ModuleID = '56/799.c'
source_filename = "56/799.c"
target datalayout = "e-m:e-p270:32:32-p271:32:32-p272:64:64-i64:64-f80:128-n8:16:32:64-S128"
target triple = "x86_64-pc-linux-gnu"

@.str = private unnamed_addr constant [3 x i8] c"%d\00", align 1
@.str.1 = private unnamed_addr constant [4 x i8] c"%d\0A\00", align 1

; Function Attrs: noinline nounwind uwtable
define dso_local void @main() #0 {
  %1 = alloca i32, align 4
  %2 = alloca i32, align 4
  %3 = alloca i32, align 4
  %4 = alloca i32, align 4
  %5 = alloca i32, align 4
  %6 = alloca i32, align 4
  %7 = alloca i32, align 4
  %8 = call i32 (i8*, ...) @__isoc99_scanf(i8* getelementptr inbounds ([3 x i8], [3 x i8]* @.str, i64 0, i64 0), i32* %1)
  %9 = load i32, i32* %1, align 4
  %10 = sdiv i32 %9, 10000
  store i32 %10, i32* %2, align 4
  %11 = load i32, i32* %1, align 4
  %12 = load i32, i32* %2, align 4
  %13 = mul nsw i32 10000, %12
  %14 = sub nsw i32 %11, %13
  %15 = sdiv i32 %14, 1000
  store i32 %15, i32* %3, align 4
  %16 = load i32, i32* %1, align 4
  %17 = load i32, i32* %2, align 4
  %18 = mul nsw i32 10000, %17
  %19 = sub nsw i32 %16, %18
  %20 = load i32, i32* %3, align 4
  %21 = mul nsw i32 1000, %20
  %22 = sub nsw i32 %19, %21
  %23 = sdiv i32 %22, 100
  store i32 %23, i32* %4, align 4
  %24 = load i32, i32* %1, align 4
  %25 = load i32, i32* %2, align 4
  %26 = mul nsw i32 10000, %25
  %27 = sub nsw i32 %24, %26
  %28 = load i32, i32* %3, align 4
  %29 = mul nsw i32 1000, %28
  %30 = sub nsw i32 %27, %29
  %31 = load i32, i32* %4, align 4
  %32 = mul nsw i32 100, %31
  %33 = sub nsw i32 %30, %32
  %34 = sdiv i32 %33, 10
  store i32 %34, i32* %5, align 4
  %35 = load i32, i32* %1, align 4
  %36 = srem i32 %35, 10
  store i32 %36, i32* %6, align 4
  %37 = load i32, i32* %2, align 4
  %38 = icmp ne i32 %37, 0
  br i1 %38, label %39, label %53

39:                                               ; preds = %0
  %40 = load i32, i32* %6, align 4
  %41 = mul nsw i32 10000, %40
  %42 = load i32, i32* %5, align 4
  %43 = mul nsw i32 1000, %42
  %44 = add nsw i32 %41, %43
  %45 = load i32, i32* %4, align 4
  %46 = mul nsw i32 100, %45
  %47 = add nsw i32 %44, %46
  %48 = load i32, i32* %3, align 4
  %49 = mul nsw i32 10, %48
  %50 = add nsw i32 %47, %49
  %51 = load i32, i32* %2, align 4
  %52 = add nsw i32 %50, %51
  store i32 %52, i32* %7, align 4
  br label %109

53:                                               ; preds = %0
  %54 = load i32, i32* %2, align 4
  %55 = icmp eq i32 %54, 0
  br i1 %55, label %56, label %70

56:                                               ; preds = %53
  %57 = load i32, i32* %3, align 4
  %58 = icmp ne i32 %57, 0
  br i1 %58, label %59, label %70

59:                                               ; preds = %56
  %60 = load i32, i32* %6, align 4
  %61 = mul nsw i32 1000, %60
  %62 = load i32, i32* %5, align 4
  %63 = mul nsw i32 100, %62
  %64 = add nsw i32 %61, %63
  %65 = load i32, i32* %4, align 4
  %66 = mul nsw i32 10, %65
  %67 = add nsw i32 %64, %66
  %68 = load i32, i32* %3, align 4
  %69 = add nsw i32 %67, %68
  store i32 %69, i32* %7, align 4
  br label %108

70:                                               ; preds = %56, %53
  %71 = load i32, i32* %2, align 4
  %72 = icmp eq i32 %71, 0
  br i1 %72, label %73, label %87

73:                                               ; preds = %70
  %74 = load i32, i32* %3, align 4
  %75 = icmp eq i32 %74, 0
  br i1 %75, label %76, label %87

76:                                               ; preds = %73
  %77 = load i32, i32* %4, align 4
  %78 = icmp ne i32 %77, 0
  br i1 %78, label %79, label %87

79:                                               ; preds = %76
  %80 = load i32, i32* %6, align 4
  %81 = mul nsw i32 100, %80
  %82 = load i32, i32* %5, align 4
  %83 = mul nsw i32 10, %82
  %84 = add nsw i32 %81, %83
  %85 = load i32, i32* %4, align 4
  %86 = add nsw i32 %84, %85
  store i32 %86, i32* %7, align 4
  br label %107

87:                                               ; preds = %76, %73, %70
  %88 = load i32, i32* %2, align 4
  %89 = icmp eq i32 %88, 0
  br i1 %89, label %90, label %104

90:                                               ; preds = %87
  %91 = load i32, i32* %3, align 4
  %92 = icmp eq i32 %91, 0
  br i1 %92, label %93, label %104

93:                                               ; preds = %90
  %94 = load i32, i32* %4, align 4
  %95 = icmp eq i32 %94, 0
  br i1 %95, label %96, label %104

96:                                               ; preds = %93
  %97 = load i32, i32* %5, align 4
  %98 = icmp ne i32 %97, 0
  br i1 %98, label %99, label %104

99:                                               ; preds = %96
  %100 = load i32, i32* %6, align 4
  %101 = mul nsw i32 10, %100
  %102 = load i32, i32* %5, align 4
  %103 = add nsw i32 %101, %102
  store i32 %103, i32* %7, align 4
  br label %106

104:                                              ; preds = %96, %93, %90, %87
  %105 = load i32, i32* %6, align 4
  store i32 %105, i32* %7, align 4
  br label %106

106:                                              ; preds = %104, %99
  br label %107

107:                                              ; preds = %106, %79
  br label %108

108:                                              ; preds = %107, %59
  br label %109

109:                                              ; preds = %108, %39
  %110 = load i32, i32* %7, align 4
  %111 = call i32 (i8*, ...) @printf(i8* getelementptr inbounds ([4 x i8], [4 x i8]* @.str.1, i64 0, i64 0), i32 %110)
  ret void
}

declare dso_local i32 @__isoc99_scanf(i8*, ...) #1

declare dso_local i32 @printf(i8*, ...) #1


!llvm.module.flags = !{!0}
!llvm.ident = !{!1}

!0 = !{i32 1, !"wchar_size", i32 4}
!1 = !{!"clang version 10.0.0-4ubuntu1 "}
